CCS PCM C Compiler, Version 4.104, 5967               15-ago-23 11:42

               Filename: C:\Users\mateu\Desktop\2023-2\Microcontroladores\PCW\4 - Semafaro advaced\main.lst

               ROM used: 600 words (7%)
                         Largest free fragment is 2048
               RAM used: 7 (2%) at main() level
                         15 (4%) worst case
               Stack:    4 locations

*
0000:  MOVLW  01
0001:  MOVWF  0A
0002:  GOTO   16B
0003:  NOP
.................... #include <16F877A.h> 
.................... //////// Standard Header file for the PIC16F877A device //////////////// 
.................... #device PIC16F877A 
.................... #list 
....................  
.................... #device adc=8 
....................  
.................... #FUSES NOWDT 
.................... #FUSES HS 
.................... #FUSES NOPUT 
.................... #FUSES NOPROTECT 
.................... #FUSES NODEBUG 
.................... #FUSES BROWNOUT 
.................... #FUSES NOLVP 
.................... #FUSES NOCPD 
.................... #FUSES NOWRT 
....................  
.................... #use delay(clock=20000000) 
*
0013:  MOVLW  29
0014:  MOVWF  04
0015:  BCF    03.7
0016:  MOVF   00,W
0017:  BTFSC  03.2
0018:  GOTO   026
0019:  MOVLW  06
001A:  MOVWF  78
001B:  CLRF   77
001C:  DECFSZ 77,F
001D:  GOTO   01C
001E:  DECFSZ 78,F
001F:  GOTO   01B
0020:  MOVLW  7B
0021:  MOVWF  77
0022:  DECFSZ 77,F
0023:  GOTO   022
0024:  DECFSZ 00,F
0025:  GOTO   019
0026:  RETURN
....................  
.................... byte const num[11]={ 
....................    0b00111111,  //0 
....................    0b00000110,  //1 
....................    0b01011011,  //2 
....................    0b01001111,  //3 
....................    0b01100110,  //4       
....................    0b01101101,  //5  
....................    0b01111101,  //6  
....................    0b00000111,  //7  
....................    0b01111111,  //8 
....................    0b01101111   //9       
.................... };  
....................        
....................  
....................  
....................  
.................... void time(int y, int x){ 
....................    if(y == 1){ 
*
003C:  DECFSZ 27,W
003D:  GOTO   051
....................       output_high(PIN_A2); 
003E:  BSF    03.5
003F:  BCF    05.2
0040:  BCF    03.5
0041:  BSF    05.2
....................       output_d(num[x]); 
0042:  MOVF   28,W
0043:  CALL   004
0044:  MOVWF  29
0045:  BSF    03.5
0046:  CLRF   08
0047:  BCF    03.5
0048:  MOVF   29,W
0049:  MOVWF  08
....................       delay_ms(5); 
004A:  MOVLW  05
004B:  MOVWF  29
004C:  CALL   013
....................       output_low(PIN_A2); 
004D:  BSF    03.5
004E:  BCF    05.2
004F:  BCF    03.5
0050:  BCF    05.2
....................    } 
....................    if(y == 2){ 
0051:  MOVF   27,W
0052:  SUBLW  02
0053:  BTFSS  03.2
0054:  GOTO   068
....................       output_high(PIN_A3); 
0055:  BSF    03.5
0056:  BCF    05.3
0057:  BCF    03.5
0058:  BSF    05.3
....................       output_d(num[x]); 
0059:  MOVF   28,W
005A:  CALL   004
005B:  MOVWF  29
005C:  BSF    03.5
005D:  CLRF   08
005E:  BCF    03.5
005F:  MOVF   29,W
0060:  MOVWF  08
....................       delay_ms(5); 
0061:  MOVLW  05
0062:  MOVWF  29
0063:  CALL   013
....................       output_low(PIN_A3); 
0064:  BSF    03.5
0065:  BCF    05.3
0066:  BCF    03.5
0067:  BCF    05.3
....................    } 
....................    if(y == 3){ 
0068:  MOVF   27,W
0069:  SUBLW  03
006A:  BTFSS  03.2
006B:  GOTO   07F
....................       output_high(PIN_A4); 
006C:  BSF    03.5
006D:  BCF    05.4
006E:  BCF    03.5
006F:  BSF    05.4
....................       output_d(num[x]); 
0070:  MOVF   28,W
0071:  CALL   004
0072:  MOVWF  29
0073:  BSF    03.5
0074:  CLRF   08
0075:  BCF    03.5
0076:  MOVF   29,W
0077:  MOVWF  08
....................       delay_ms(5); 
0078:  MOVLW  05
0079:  MOVWF  29
007A:  CALL   013
....................       output_low(PIN_A4); 
007B:  BSF    03.5
007C:  BCF    05.4
007D:  BCF    03.5
007E:  BCF    05.4
....................    } 
....................    if(y == 4){ 
007F:  MOVF   27,W
0080:  SUBLW  04
0081:  BTFSS  03.2
0082:  GOTO   096
....................       output_high(PIN_A5); 
0083:  BSF    03.5
0084:  BCF    05.5
0085:  BCF    03.5
0086:  BSF    05.5
....................       output_d(num[x]); 
0087:  MOVF   28,W
0088:  CALL   004
0089:  MOVWF  29
008A:  BSF    03.5
008B:  CLRF   08
008C:  BCF    03.5
008D:  MOVF   29,W
008E:  MOVWF  08
....................       delay_ms(5); 
008F:  MOVLW  05
0090:  MOVWF  29
0091:  CALL   013
....................       output_low(PIN_A5); 
0092:  BSF    03.5
0093:  BCF    05.5
0094:  BCF    03.5
0095:  BCF    05.5
....................    } 
.................... } 
0096:  RETURN
.................... void timeP(int y, int x){ 
....................    if(y == 1){ 
*
00C8:  DECFSZ 27,W
00C9:  GOTO   0E0
....................       output_high(PIN_A2); 
00CA:  BSF    03.5
00CB:  BCF    05.2
00CC:  BCF    03.5
00CD:  BSF    05.2
....................       output_d(num[x]); 
00CE:  MOVF   28,W
00CF:  CALL   004
00D0:  MOVWF  29
00D1:  BSF    03.5
00D2:  CLRF   08
00D3:  BCF    03.5
00D4:  MOVF   29,W
00D5:  MOVWF  08
....................       delay_ms(1); 
00D6:  MOVLW  01
00D7:  MOVWF  29
00D8:  CALL   013
....................       output_low(PIN_A2); 
00D9:  BSF    03.5
00DA:  BCF    05.2
00DB:  BCF    03.5
00DC:  BCF    05.2
....................       delay_ms(4); 
00DD:  MOVLW  04
00DE:  MOVWF  29
00DF:  CALL   013
....................    } 
....................    if(y == 2){ 
00E0:  MOVF   27,W
00E1:  SUBLW  02
00E2:  BTFSS  03.2
00E3:  GOTO   0FA
....................       output_high(PIN_A3); 
00E4:  BSF    03.5
00E5:  BCF    05.3
00E6:  BCF    03.5
00E7:  BSF    05.3
....................       output_d(num[x]); 
00E8:  MOVF   28,W
00E9:  CALL   004
00EA:  MOVWF  29
00EB:  BSF    03.5
00EC:  CLRF   08
00ED:  BCF    03.5
00EE:  MOVF   29,W
00EF:  MOVWF  08
....................       delay_ms(1); 
00F0:  MOVLW  01
00F1:  MOVWF  29
00F2:  CALL   013
....................       output_low(PIN_A3); 
00F3:  BSF    03.5
00F4:  BCF    05.3
00F5:  BCF    03.5
00F6:  BCF    05.3
....................       delay_ms(4); 
00F7:  MOVLW  04
00F8:  MOVWF  29
00F9:  CALL   013
....................    } 
....................    if(y == 3){ 
00FA:  MOVF   27,W
00FB:  SUBLW  03
00FC:  BTFSS  03.2
00FD:  GOTO   114
....................       output_high(PIN_A4); 
00FE:  BSF    03.5
00FF:  BCF    05.4
0100:  BCF    03.5
0101:  BSF    05.4
....................       output_d(num[x]); 
0102:  MOVF   28,W
0103:  CALL   004
0104:  MOVWF  29
0105:  BSF    03.5
0106:  CLRF   08
0107:  BCF    03.5
0108:  MOVF   29,W
0109:  MOVWF  08
....................       delay_ms(1); 
010A:  MOVLW  01
010B:  MOVWF  29
010C:  CALL   013
....................       output_low(PIN_A4); 
010D:  BSF    03.5
010E:  BCF    05.4
010F:  BCF    03.5
0110:  BCF    05.4
....................       delay_ms(4); 
0111:  MOVLW  04
0112:  MOVWF  29
0113:  CALL   013
....................    } 
....................    if(y == 4){ 
0114:  MOVF   27,W
0115:  SUBLW  04
0116:  BTFSS  03.2
0117:  GOTO   12E
....................       output_high(PIN_A5); 
0118:  BSF    03.5
0119:  BCF    05.5
011A:  BCF    03.5
011B:  BSF    05.5
....................       output_d(num[x]); 
011C:  MOVF   28,W
011D:  CALL   004
011E:  MOVWF  29
011F:  BSF    03.5
0120:  CLRF   08
0121:  BCF    03.5
0122:  MOVF   29,W
0123:  MOVWF  08
....................       delay_ms(1); 
0124:  MOVLW  01
0125:  MOVWF  29
0126:  CALL   013
....................       output_low(PIN_A5); 
0127:  BSF    03.5
0128:  BCF    05.5
0129:  BCF    03.5
012A:  BCF    05.5
....................       delay_ms(4); 
012B:  MOVLW  04
012C:  MOVWF  29
012D:  CALL   013
....................    } 
.................... } 
012E:  RETURN
.................... void timer(int x, int y){ 
....................    int ds, un, tempo; 
....................    while(x>=y){ 
*
0097:  MOVF   23,W
0098:  SUBWF  22,W
0099:  BTFSS  03.0
009A:  GOTO   0C0
....................       ds = x/10; 
009B:  MOVF   22,W
009C:  MOVWF  27
009D:  MOVLW  0A
009E:  MOVWF  28
009F:  CALL   027
00A0:  MOVF   78,W
00A1:  MOVWF  24
....................       un = x%10; 
00A2:  MOVF   22,W
00A3:  MOVWF  27
00A4:  MOVLW  0A
00A5:  MOVWF  28
00A6:  CALL   027
00A7:  MOVF   77,W
00A8:  MOVWF  25
....................       for(tempo=0;tempo<100;tempo++){ 
00A9:  CLRF   26
00AA:  MOVF   26,W
00AB:  SUBLW  63
00AC:  BTFSS  03.0
00AD:  GOTO   0BA
....................          time(3,ds); 
00AE:  MOVLW  03
00AF:  MOVWF  27
00B0:  MOVF   24,W
00B1:  MOVWF  28
00B2:  CALL   03C
....................          time(4,un); 
00B3:  MOVLW  04
00B4:  MOVWF  27
00B5:  MOVF   25,W
00B6:  MOVWF  28
00B7:  CALL   03C
....................       } 
00B8:  INCF   26,F
00B9:  GOTO   0AA
....................       x--; 
00BA:  DECF   22,F
....................       if(x == -1) break; 
00BB:  MOVF   22,W
00BC:  SUBLW  FF
00BD:  BTFSC  03.2
00BE:  GOTO   0C0
....................    } 
00BF:  GOTO   097
.................... } 
00C0:  RETURN
.................... void timer(int x){ 
....................    timer(x,0); 
00C1:  MOVF   21,W
00C2:  MOVWF  22
00C3:  CLRF   23
00C4:  CALL   097
.................... } 
00C5:  BCF    0A.3
00C6:  BCF    0A.4
00C7:  GOTO   223 (RETURN)
....................  
.................... void timerP(int x, int y){ 
....................    int ds, un, tempo; 
....................    while(x>=y){ 
*
0132:  MOVF   23,W
0133:  SUBWF  22,W
0134:  BTFSS  03.0
0135:  GOTO   168
....................       ds = x/10; 
0136:  MOVF   22,W
0137:  MOVWF  27
0138:  MOVLW  0A
0139:  MOVWF  28
013A:  CALL   027
013B:  MOVF   78,W
013C:  MOVWF  24
....................       un = x%10; 
013D:  MOVF   22,W
013E:  MOVWF  27
013F:  MOVLW  0A
0140:  MOVWF  28
0141:  CALL   027
0142:  MOVF   77,W
0143:  MOVWF  25
....................       for(tempo=0;tempo<100;tempo++){ 
0144:  CLRF   26
0145:  MOVF   26,W
0146:  SUBLW  63
0147:  BTFSS  03.0
0148:  GOTO   162
....................          timeP(3,ds); 
0149:  MOVLW  03
014A:  MOVWF  27
014B:  MOVF   24,W
014C:  MOVWF  28
014D:  CALL   0C8
....................          timeP(4,un); 
014E:  MOVLW  04
014F:  MOVWF  27
0150:  MOVF   25,W
0151:  MOVWF  28
0152:  CALL   0C8
....................          if(!(tempo%50)) output_toggle(PIN_B6); 
0153:  MOVF   26,W
0154:  MOVWF  27
0155:  MOVLW  32
0156:  MOVWF  28
0157:  CALL   027
0158:  MOVF   77,W
0159:  BTFSS  03.2
015A:  GOTO   160
015B:  BSF    03.5
015C:  BCF    06.6
015D:  MOVLW  40
015E:  BCF    03.5
015F:  XORWF  06,F
....................       } 
0160:  INCF   26,F
0161:  GOTO   145
....................       x--; 
0162:  DECF   22,F
....................       if(x == -1) break; 
0163:  MOVF   22,W
0164:  SUBLW  FF
0165:  BTFSC  03.2
0166:  GOTO   168
....................    } 
0167:  GOTO   132
.................... } 
.................... void timerP(int x){ 
....................    timerP(x,0); 
*
012F:  MOVF   21,W
0130:  MOVWF  22
0131:  CLRF   23
.................... } 
*
0168:  BCF    0A.3
0169:  BCF    0A.4
016A:  GOTO   237 (RETURN)
....................  
.................... void main() 
.................... { 
016B:  CLRF   04
016C:  BCF    03.7
016D:  MOVLW  1F
016E:  ANDWF  03,F
016F:  BSF    03.5
0170:  BSF    1F.0
0171:  BSF    1F.1
0172:  BSF    1F.2
0173:  BCF    1F.3
0174:  MOVLW  07
0175:  MOVWF  1C
....................  
....................    setup_adc_ports(NO_ANALOGS); 
*
0179:  BSF    03.5
017A:  BSF    1F.0
017B:  BSF    1F.1
017C:  BSF    1F.2
017D:  BCF    1F.3
....................    setup_adc(ADC_CLOCK_DIV_2); 
017E:  BCF    1F.6
017F:  BCF    03.5
0180:  BCF    1F.6
0181:  BCF    1F.7
0182:  BSF    03.5
0183:  BCF    1F.7
0184:  BCF    03.5
0185:  BSF    1F.0
....................    setup_psp(PSP_DISABLED); 
0186:  BSF    03.5
0187:  BCF    09.4
....................    setup_spi(SPI_SS_DISABLED); 
0188:  BCF    03.5
0189:  BCF    14.5
018A:  BCF    20.5
018B:  MOVF   20,W
018C:  BSF    03.5
018D:  MOVWF  07
018E:  BCF    03.5
018F:  BSF    20.4
0190:  MOVF   20,W
0191:  BSF    03.5
0192:  MOVWF  07
0193:  BCF    03.5
0194:  BCF    20.3
0195:  MOVF   20,W
0196:  BSF    03.5
0197:  MOVWF  07
0198:  MOVLW  01
0199:  BCF    03.5
019A:  MOVWF  14
019B:  MOVLW  00
019C:  BSF    03.5
019D:  MOVWF  14
....................    setup_timer_0(RTCC_INTERNAL|RTCC_DIV_1); 
019E:  MOVF   01,W
019F:  ANDLW  C7
01A0:  IORLW  08
01A1:  MOVWF  01
....................    setup_timer_1(T1_DISABLED); 
01A2:  BCF    03.5
01A3:  CLRF   10
....................    setup_timer_2(T2_DISABLED,0,1); 
01A4:  MOVLW  00
01A5:  MOVWF  78
01A6:  MOVWF  12
01A7:  MOVLW  00
01A8:  BSF    03.5
01A9:  MOVWF  12
....................    setup_comparator(NC_NC_NC_NC); 
01AA:  MOVLW  07
01AB:  MOVWF  1C
01AC:  MOVF   05,W
01AD:  MOVWF  05
01AE:  MOVLW  10
01AF:  MOVWF  77
01B0:  DECFSZ 77,F
01B1:  GOTO   1B0
01B2:  NOP
01B3:  MOVF   1C,W
01B4:  BCF    03.5
01B5:  BCF    0D.6
....................    setup_vref(FALSE); 
01B6:  BSF    03.5
01B7:  CLRF   1D
....................  
....................    // TODO: USER CODE!! 
....................    output_low(PIN_D0); 
01B8:  BCF    08.0
01B9:  BCF    03.5
01BA:  BCF    08.0
....................    output_low(PIN_D1); 
01BB:  BSF    03.5
01BC:  BCF    08.1
01BD:  BCF    03.5
01BE:  BCF    08.1
....................    output_low(PIN_D2); 
01BF:  BSF    03.5
01C0:  BCF    08.2
01C1:  BCF    03.5
01C2:  BCF    08.2
....................    output_low(PIN_D3); 
01C3:  BSF    03.5
01C4:  BCF    08.3
01C5:  BCF    03.5
01C6:  BCF    08.3
....................    output_low(PIN_D4); 
01C7:  BSF    03.5
01C8:  BCF    08.4
01C9:  BCF    03.5
01CA:  BCF    08.4
....................    output_low(PIN_D5); 
01CB:  BSF    03.5
01CC:  BCF    08.5
01CD:  BCF    03.5
01CE:  BCF    08.5
....................    output_low(PIN_D6); 
01CF:  BSF    03.5
01D0:  BCF    08.6
01D1:  BCF    03.5
01D2:  BCF    08.6
....................    output_low(PIN_D7); 
01D3:  BSF    03.5
01D4:  BCF    08.7
01D5:  BCF    03.5
01D6:  BCF    08.7
....................    output_low(PIN_B0); 
01D7:  BSF    03.5
01D8:  BCF    06.0
01D9:  BCF    03.5
01DA:  BCF    06.0
....................  
....................    output_low(PIN_B2); 
01DB:  BSF    03.5
01DC:  BCF    06.2
01DD:  BCF    03.5
01DE:  BCF    06.2
....................    output_low(PIN_B3); 
01DF:  BSF    03.5
01E0:  BCF    06.3
01E1:  BCF    03.5
01E2:  BCF    06.3
....................    output_high(PIN_B4); // verde para carro 
01E3:  BSF    03.5
01E4:  BCF    06.4
01E5:  BCF    03.5
01E6:  BSF    06.4
....................    output_low(PIN_B5); 
01E7:  BSF    03.5
01E8:  BCF    06.5
01E9:  BCF    03.5
01EA:  BCF    06.5
....................    output_high(PIN_B6); // vermelho para pedestre 
01EB:  BSF    03.5
01EC:  BCF    06.6
01ED:  BCF    03.5
01EE:  BSF    06.6
....................    output_low(PIN_B7); 
01EF:  BSF    03.5
01F0:  BCF    06.7
01F1:  BCF    03.5
01F2:  BCF    06.7
....................     
....................    output_low(PIN_A4); 
01F3:  BSF    03.5
01F4:  BCF    05.4
01F5:  BCF    03.5
01F6:  BCF    05.4
....................    //output_low(PIN_A5); 
....................    output_high(PIN_C2); 
01F7:  BCF    20.2
01F8:  MOVF   20,W
01F9:  BSF    03.5
01FA:  MOVWF  07
01FB:  BCF    03.5
01FC:  BSF    07.2
....................    output_high(PIN_C1); 
01FD:  BCF    20.1
01FE:  MOVF   20,W
01FF:  BSF    03.5
0200:  MOVWF  07
0201:  BCF    03.5
0202:  BSF    07.1
....................     
....................    delay_ms(100); 
0203:  MOVLW  64
0204:  MOVWF  29
0205:  CALL   013
....................    while(true){ 
....................        
....................       /* 
....................       output_high(PIN_A0); 
....................       delay_ms(1000); 
....................       output_high(PIN_A1); 
....................       delay_ms(1000); 
....................       output_low(PIN_A0); 
....................       delay_ms(1000); 
....................       output_low(PIN_A1); 
....................       output_toggle(PIN_B7); 
....................       */ 
....................       //* 
....................        
....................        
....................       if( !input(PIN_B0) ){ 
0206:  BSF    03.5
0207:  BSF    06.0
0208:  BCF    03.5
0209:  BTFSC  06.0
020A:  GOTO   252
....................          output_high(PIN_B7); // Controle Botão 
020B:  BSF    03.5
020C:  BCF    06.7
020D:  BCF    03.5
020E:  BSF    06.7
....................           
....................          /// Sinaleiro 
....................          // verde -> amarelo 
....................          timer(14,4); 
020F:  MOVLW  0E
0210:  MOVWF  22
0211:  MOVLW  04
0212:  MOVWF  23
0213:  CALL   097
....................          //output_low(PIN_B4); 
....................          //output_high(PIN_B3); 
....................          output_high(PIN_B3); 
0214:  BSF    03.5
0215:  BCF    06.3
0216:  BCF    03.5
0217:  BSF    06.3
....................          timer(3,1);// 3s amarelo 
0218:  MOVLW  03
0219:  MOVWF  22
021A:  MOVLW  01
021B:  MOVWF  23
021C:  CALL   097
....................           
....................          // amarelo -> red 
....................          output_low(PIN_B4); 
021D:  BSF    03.5
021E:  BCF    06.4
021F:  BCF    03.5
0220:  BCF    06.4
....................          //output_high(PIN_B2); 
....................          timer(0); // tempo de troca 
0221:  CLRF   21
0222:  GOTO   0C1
....................          // verde pedrestr 
....................          output_low(PIN_B6); 
0223:  BSF    03.5
0224:  BCF    06.6
0225:  BCF    03.5
0226:  BCF    06.6
....................          output_high(PIN_B5); 
0227:  BSF    03.5
0228:  BCF    06.5
0229:  BCF    03.5
022A:  BSF    06.5
....................          timer(15,5); // 8s para atravessar 
022B:  MOVLW  0F
022C:  MOVWF  22
022D:  MOVLW  05
022E:  MOVWF  23
022F:  CALL   097
....................          // vemrl pedest 
....................          output_low(PIN_B5); 
0230:  BSF    03.5
0231:  BCF    06.5
0232:  BCF    03.5
0233:  BCF    06.5
....................          timerP(5); // tempo de troca 
0234:  MOVLW  05
0235:  MOVWF  21
0236:  GOTO   12F
....................          output_high(PIN_B6); 
0237:  BSF    03.5
0238:  BCF    06.6
0239:  BCF    03.5
023A:  BSF    06.6
....................          delay_ms(1000); 
023B:  MOVLW  04
023C:  MOVWF  21
023D:  MOVLW  FA
023E:  MOVWF  29
023F:  CALL   013
0240:  DECFSZ 21,F
0241:  GOTO   23D
....................          // verde carro 
....................          output_low(PIN_B3); 
0242:  BSF    03.5
0243:  BCF    06.3
0244:  BCF    03.5
0245:  BCF    06.3
....................          output_high(PIN_B4); 
0246:  BSF    03.5
0247:  BCF    06.4
0248:  BCF    03.5
0249:  BSF    06.4
....................           
....................          delay_ms(20000); // intervalo para nova parada 
024A:  MOVLW  50
024B:  MOVWF  21
024C:  MOVLW  FA
024D:  MOVWF  29
024E:  CALL   013
024F:  DECFSZ 21,F
0250:  GOTO   24C
....................           
....................       } else { 
0251:  GOTO   256
....................          output_low(PIN_B7);  // Controle Botão 
0252:  BSF    03.5
0253:  BCF    06.7
0254:  BCF    03.5
0255:  BCF    06.7
....................       }//*/ 
....................        
....................        
....................        
....................        
....................    } 
0256:  GOTO   206
.................... } 
.................... /* 
....................        
....................       /* 
....................        // 5s Verde 
....................       output_high(PIN_D0); 
....................       delay_ms(5000); 
....................       output_low(PIN_D0); 
....................       // 3s Amarelo 
....................       output_high(PIN_D1); 
....................       delay_ms(3000);    
....................       output_low(PIN_D1); 
....................       // 1s Vermelho 
....................       output_high(PIN_D2); 
....................       delay_ms(1000); 
....................       // Troca de via A->B 
....................       output_low(PIN_B2); 
....................       // 5s Verde 
....................       output_high(PIN_B0); 
....................       delay_ms(5000); 
....................       output_low(PIN_B0); 
....................       // 3s Amarelo 
....................       output_high(PIN_B1); 
....................       delay_ms(3000); 
....................       output_low(PIN_B1); 
....................       // 1s Vermelho 
....................       output_high(PIN_B2); 
....................       delay_ms(1000); 
....................       // Troca de via B->A 
....................       output_low(PIN_D2); 
....................       */ 
....................        
....................        
....................       /* Liga para conclusao 
....................       output_high(PIN_B7);  // Controle While 
....................       delay_ms(500); 
....................       output_low(PIN_B7); // Controle While 
....................       delay_ms(500);*/ 
0257:  SLEEP

Configuration Fuses:
   Word  1: 3F7A   HS NOWDT NOPUT NODEBUG NOPROTECT BROWNOUT NOLVP NOCPD NOWRT
