CCS PCM C Compiler, Version 4.104, 5967               27-set-23 16:34

               Filename: C:\Users\mateu\Desktop\2023-2\Microcontroladores\PCW\pwm_dealy\pwm_dealy.lst

               ROM used: 215 words (3%)
                         Largest free fragment is 2048
               RAM used: 10 (3%) at main() level
                         18 (5%) worst case
               Stack:    1 locations

*
0000:  MOVLW  00
0001:  MOVWF  0A
0002:  GOTO   038
0003:  NOP
.................... #include <16F877A.h> 
.................... //////// Standard Header file for the PIC16F877A device //////////////// 
.................... #device PIC16F877A 
.................... #list 
....................  
.................... #device ADC=10 
.................... #FUSES NOWDT //No Watch Dog Timer 
.................... #FUSES NOBROWNOUT //No brownout reset 
.................... #FUSES NOLVP //No low voltage prgming, B3(PIC16) or B5(PIC18) used for I/O 
.................... #use delay(crystal=20000000) 
0029:  MOVLW  03
002A:  SUBWF  29,F
002B:  BTFSS  03.0
002C:  GOTO   037
002D:  MOVLW  29
002E:  MOVWF  04
002F:  BCF    03.7
0030:  MOVF   00,W
0031:  BTFSC  03.2
0032:  GOTO   037
0033:  GOTO   035
0034:  GOTO   035
0035:  DECFSZ 00,F
0036:  GOTO   034
0037:  RETURN
.................... #define LED PIN_D2 
.................... int16 Ton=0; 
.................... int16 Toff=0; 
.................... void main() 
.................... { 
0038:  CLRF   04
0039:  BCF    03.7
003A:  MOVLW  1F
003B:  ANDWF  03,F
003C:  CLRF   21
003D:  CLRF   20
003E:  CLRF   23
003F:  CLRF   22
0040:  BSF    03.5
0041:  BSF    1F.0
0042:  BSF    1F.1
0043:  BSF    1F.2
0044:  BCF    1F.3
0045:  MOVLW  07
0046:  MOVWF  1C
....................  //Example blinking LED program 
....................  while(true){ 
....................  int16 i; 
....................  for( i=0;i<10000;i++){ // demorar 10 segundos 
0047:  BCF    03.5
0048:  CLRF   25
0049:  CLRF   24
004A:  MOVF   25,W
004B:  SUBLW  27
004C:  BTFSS  03.0
004D:  GOTO   08F
004E:  BTFSS  03.2
004F:  GOTO   054
0050:  MOVF   24,W
0051:  SUBLW  0F
0052:  BTFSS  03.0
0053:  GOTO   08F
....................  output_high(LED); 
0054:  BSF    03.5
0055:  BCF    08.2
0056:  BCF    03.5
0057:  BSF    08.2
....................  Ton=i/10; 
0058:  MOVF   25,W
0059:  MOVWF  29
005A:  MOVF   24,W
005B:  MOVWF  28
005C:  CLRF   2B
005D:  MOVLW  0A
005E:  MOVWF  2A
005F:  CALL   004
0060:  MOVF   79,W
0061:  MOVWF  21
0062:  MOVF   78,W
0063:  MOVWF  20
....................  delay_us(Ton); 
0064:  MOVF   21,W
0065:  MOVWF  28
0066:  INCF   28,F
0067:  DECF   28,F
0068:  BTFSC  03.2
0069:  GOTO   06E
006A:  MOVLW  FF
006B:  MOVWF  29
006C:  CALL   029
006D:  GOTO   067
006E:  MOVF   20,W
006F:  MOVWF  29
0070:  CALL   029
....................  output_low(LED); 
0071:  BSF    03.5
0072:  BCF    08.2
0073:  BCF    03.5
0074:  BCF    08.2
....................  Toff=1000 - Ton; 
0075:  MOVF   20,W
0076:  SUBLW  E8
0077:  MOVWF  22
0078:  MOVLW  03
0079:  MOVWF  23
007A:  MOVF   21,W
007B:  BTFSS  03.0
007C:  INCFSZ 21,W
007D:  SUBWF  23,F
....................  delay_us(Toff); 
007E:  MOVF   23,W
007F:  MOVWF  28
0080:  INCF   28,F
0081:  DECF   28,F
0082:  BTFSC  03.2
0083:  GOTO   088
0084:  MOVLW  FF
0085:  MOVWF  29
0086:  CALL   029
0087:  GOTO   081
0088:  MOVF   22,W
0089:  MOVWF  29
008A:  CALL   029
....................  } 
008B:  INCF   24,F
008C:  BTFSC  03.2
008D:  INCF   25,F
008E:  GOTO   04A
....................  int16 j; 
....................  for( j=10000;j>0;j--){ // demorar 10 segundos 
008F:  MOVLW  27
0090:  MOVWF  27
0091:  MOVLW  10
0092:  MOVWF  26
0093:  MOVF   26,F
0094:  BTFSS  03.2
0095:  GOTO   099
0096:  MOVF   27,F
0097:  BTFSC  03.2
0098:  GOTO   0D5
....................  output_high(LED); 
0099:  BSF    03.5
009A:  BCF    08.2
009B:  BCF    03.5
009C:  BSF    08.2
....................  Ton=j/10; 
009D:  MOVF   27,W
009E:  MOVWF  29
009F:  MOVF   26,W
00A0:  MOVWF  28
00A1:  CLRF   2B
00A2:  MOVLW  0A
00A3:  MOVWF  2A
00A4:  CALL   004
00A5:  MOVF   79,W
00A6:  MOVWF  21
00A7:  MOVF   78,W
00A8:  MOVWF  20
....................  delay_us(Ton); 
00A9:  MOVF   21,W
00AA:  MOVWF  28
00AB:  INCF   28,F
00AC:  DECF   28,F
00AD:  BTFSC  03.2
00AE:  GOTO   0B3
00AF:  MOVLW  FF
00B0:  MOVWF  29
00B1:  CALL   029
00B2:  GOTO   0AC
00B3:  MOVF   20,W
00B4:  MOVWF  29
00B5:  CALL   029
....................  output_low(LED); 
00B6:  BSF    03.5
00B7:  BCF    08.2
00B8:  BCF    03.5
00B9:  BCF    08.2
....................  Toff=1000 - Ton; 
00BA:  MOVF   20,W
00BB:  SUBLW  E8
00BC:  MOVWF  22
00BD:  MOVLW  03
00BE:  MOVWF  23
00BF:  MOVF   21,W
00C0:  BTFSS  03.0
00C1:  INCFSZ 21,W
00C2:  SUBWF  23,F
....................  delay_us(Toff); 
00C3:  MOVF   23,W
00C4:  MOVWF  28
00C5:  INCF   28,F
00C6:  DECF   28,F
00C7:  BTFSC  03.2
00C8:  GOTO   0CD
00C9:  MOVLW  FF
00CA:  MOVWF  29
00CB:  CALL   029
00CC:  GOTO   0C6
00CD:  MOVF   22,W
00CE:  MOVWF  29
00CF:  CALL   029
....................  } 
00D0:  MOVF   26,W
00D1:  BTFSC  03.2
00D2:  DECF   27,F
00D3:  DECF   26,F
00D4:  GOTO   093
....................  } 
00D5:  GOTO   048
.................... } 
00D6:  SLEEP

Configuration Fuses:
   Word  1: 3F32   HS NOWDT PUT NODEBUG NOPROTECT NOBROWNOUT NOLVP NOCPD NOWRT
