CCS PCM C Compiler, Version 4.104, 5967               27-set-23 08:58

               Filename: C:\Users\mateu\Desktop\2023-2\Microcontroladores\PCW\processosIndepedentes\main.lst

               ROM used: 178 words (2%)
                         Largest free fragment is 2048
               RAM used: 15 (4%) at main() level
                         15 (4%) worst case
               Stack:    1 worst case (0 in main + 1 for interrupts)

*
0000:  MOVLW  00
0001:  MOVWF  0A
0002:  GOTO   05A
0003:  NOP
0004:  MOVWF  7F
0005:  SWAPF  03,W
0006:  CLRF   03
0007:  MOVWF  21
0008:  MOVF   0A,W
0009:  MOVWF  20
000A:  CLRF   0A
000B:  MOVF   04,W
000C:  MOVWF  22
000D:  MOVF   77,W
000E:  MOVWF  23
000F:  MOVF   78,W
0010:  MOVWF  24
0011:  MOVF   79,W
0012:  MOVWF  25
0013:  MOVF   7A,W
0014:  MOVWF  26
0015:  BCF    03.7
0016:  BCF    03.5
0017:  BTFSS  0B.5
0018:  GOTO   01B
0019:  BTFSC  0B.2
001A:  GOTO   032
001B:  MOVLW  8C
001C:  MOVWF  04
001D:  BTFSS  00.0
001E:  GOTO   021
001F:  BTFSC  0C.0
0020:  GOTO   035
0021:  MOVF   22,W
0022:  MOVWF  04
0023:  MOVF   23,W
0024:  MOVWF  77
0025:  MOVF   24,W
0026:  MOVWF  78
0027:  MOVF   25,W
0028:  MOVWF  79
0029:  MOVF   26,W
002A:  MOVWF  7A
002B:  MOVF   20,W
002C:  MOVWF  0A
002D:  SWAPF  21,W
002E:  MOVWF  03
002F:  SWAPF  7F,F
0030:  SWAPF  7F,W
0031:  RETFIE
0032:  BCF    0A.3
0033:  BCF    0A.4
0034:  GOTO   038
0035:  BCF    0A.3
0036:  BCF    0A.4
0037:  GOTO   049
.................... #include <16F877A.h> 
.................... //////// Standard Header file for the PIC16F877A device //////////////// 
.................... #device PIC16F877A 
.................... #list 
....................  
.................... #device adc=8 
....................  
.................... #FUSES NOWDT //No Watch Dog Timer 
.................... #FUSES XT //Crystal osc <= 4mhz for PCM/PCH , 3mhz to 10 mhz for PCD 
.................... #FUSES NOPUT //No Power Up Timer 
.................... #FUSES NOPROTECT //Code not protected from reading 
.................... #FUSES NODEBUG //No Debug mode for ICD 
.................... #FUSES BROWNOUT //Reset when brownout detected 
.................... #FUSES NOLVP //No low voltage prgming, B3(PIC16) or B5(PIC18) used for I/O 
.................... #FUSES NOCPD //No EE protection 
.................... #FUSES NOWRT //Program memory not write protected 
.................... #FUSES RESERVED //Used to set the reserved FUSE bits 
....................  
.................... #use delay(clock=4000000) 
....................  
.................... unsigned int cont_t0=0,cont_t1=0; 
.................... #int_RTCC 
.................... void RTCC_isr(void) 
.................... { 
.................... set_timer0(6); 
*
0038:  MOVLW  06
0039:  MOVWF  01
.................... if(++cont_t0>=10){ 
003A:  INCF   27,F
003B:  MOVF   27,W
003C:  SUBLW  09
003D:  BTFSC  03.0
003E:  GOTO   045
....................  cont_t0=0; 
003F:  CLRF   27
....................  output_toggle(PIN_D0); 
0040:  BSF    03.5
0041:  BCF    08.0
0042:  MOVLW  01
0043:  BCF    03.5
0044:  XORWF  08,F
.................... } 
.................... } 
0045:  BCF    0B.2
0046:  BCF    0A.3
0047:  BCF    0A.4
0048:  GOTO   021
.................... #int_TIMER1 
.................... void TIMER1_isr(void) 
.................... { 
....................  set_timer0(15536); 
0049:  MOVLW  B0
004A:  MOVWF  01
....................  if(++cont_t1>=2){ 
004B:  INCF   28,F
004C:  MOVF   28,W
004D:  SUBLW  01
004E:  BTFSC  03.0
004F:  GOTO   056
....................  cont_t1=0; 
0050:  CLRF   28
....................  output_toggle(PIN_D1); 
0051:  BSF    03.5
0052:  BCF    08.1
0053:  MOVLW  02
0054:  BCF    03.5
0055:  XORWF  08,F
....................  } 
.................... } 
0056:  BCF    0C.0
0057:  BCF    0A.3
0058:  BCF    0A.4
0059:  GOTO   021
.................... void main() 
.................... { 
005A:  CLRF   04
005B:  BCF    03.7
005C:  MOVLW  1F
005D:  ANDWF  03,F
005E:  CLRF   27
005F:  CLRF   28
0060:  BSF    03.5
0061:  BSF    1F.0
0062:  BSF    1F.1
0063:  BSF    1F.2
0064:  BCF    1F.3
0065:  MOVLW  07
0066:  MOVWF  1C
....................  setup_adc_ports(NO_ANALOGS); 
*
006A:  BSF    03.5
006B:  BSF    1F.0
006C:  BSF    1F.1
006D:  BSF    1F.2
006E:  BCF    1F.3
....................  setup_adc(ADC_CLOCK_DIV_2); 
006F:  BCF    1F.6
0070:  BCF    03.5
0071:  BCF    1F.6
0072:  BCF    1F.7
0073:  BSF    03.5
0074:  BCF    1F.7
0075:  BCF    03.5
0076:  BSF    1F.0
....................  setup_psp(PSP_DISABLED); 
0077:  BSF    03.5
0078:  BCF    09.4
....................  setup_spi(SPI_SS_DISABLED); 
0079:  BCF    03.5
007A:  BCF    14.5
007B:  BCF    29.5
007C:  MOVF   29,W
007D:  BSF    03.5
007E:  MOVWF  07
007F:  BCF    03.5
0080:  BSF    29.4
0081:  MOVF   29,W
0082:  BSF    03.5
0083:  MOVWF  07
0084:  BCF    03.5
0085:  BCF    29.3
0086:  MOVF   29,W
0087:  BSF    03.5
0088:  MOVWF  07
0089:  MOVLW  01
008A:  BCF    03.5
008B:  MOVWF  14
008C:  MOVLW  00
008D:  BSF    03.5
008E:  MOVWF  14
....................  setup_timer_0(RTCC_INTERNAL|RTCC_DIV_1); 
008F:  MOVF   01,W
0090:  ANDLW  C7
0091:  IORLW  08
0092:  MOVWF  01
....................  setup_timer_1(T1_INTERNAL|T1_DIV_BY_1); 
0093:  MOVLW  85
0094:  BCF    03.5
0095:  MOVWF  10
....................  setup_timer_2(T2_DISABLED,0,1); 
0096:  MOVLW  00
0097:  MOVWF  78
0098:  MOVWF  12
0099:  MOVLW  00
009A:  BSF    03.5
009B:  MOVWF  12
....................  setup_comparator(NC_NC_NC_NC); 
009C:  MOVLW  07
009D:  MOVWF  1C
009E:  MOVF   05,W
009F:  MOVWF  05
00A0:  MOVLW  03
00A1:  MOVWF  77
00A2:  DECFSZ 77,F
00A3:  GOTO   0A2
00A4:  MOVF   1C,W
00A5:  BCF    03.5
00A6:  BCF    0D.6
....................  setup_vref(FALSE); 
00A7:  BSF    03.5
00A8:  CLRF   1D
....................  enable_interrupts(INT_RTCC); 
00A9:  BCF    03.5
00AA:  BSF    0B.5
....................  enable_interrupts(INT_TIMER1); 
00AB:  BSF    03.5
00AC:  BSF    0C.0
....................  enable_interrupts(GLOBAL); 
00AD:  MOVLW  C0
00AE:  BCF    03.5
00AF:  IORWF  0B,F
....................  while(true){ 
....................  } 
00B0:  GOTO   0B0
.................... } 
00B1:  SLEEP

Configuration Fuses:
   Word  1: 3F79   XT NOWDT NOPUT NODEBUG NOPROTECT BROWNOUT NOLVP NOCPD NOWRT
